target datalayout = "e-m:e-p270:32:32-p271:32:32-p272:64:64-i64:64-i128:128-f80:128-n8:16:32:64-S128"
target triple = "x86_64-pc-linux-gnu"

%struct.lmcurve_data_struct = type { ptr, ptr, ptr, ptr }

; Function Attrs: mustprogress uwtable
define internal void @_ZL16lmcurve_evaluatePKdiPKvPdPi(ptr noundef %0, i32 noundef %1, ptr noundef %2, ptr noundef %3, ptr noundef %4) #0 {
  %6 = alloca ptr, align 8
  %7 = alloca i32, align 4
  %8 = alloca ptr, align 8
  %9 = alloca ptr, align 8
  %10 = alloca ptr, align 8
  %11 = alloca ptr, align 8
  %12 = alloca i32, align 4
  %13 = alloca double, align 8
  store ptr %0, ptr %6, align 8, !tbaa !8
  store i32 %1, ptr %7, align 4, !tbaa !4
  store ptr %2, ptr %8, align 8, !tbaa !26
  store ptr %3, ptr %9, align 8, !tbaa !8
  store ptr %4, ptr %10, align 8, !tbaa !46
  call void @llvm.lifetime.start.p0(i64 8, ptr %11) #8
  %14 = load ptr, ptr %8, align 8, !tbaa !26
  store ptr %14, ptr %11, align 8, !tbaa !26
  call void @llvm.lifetime.start.p0(i64 4, ptr %12) #8
  store i32 0, ptr %12, align 4, !tbaa !4
  br label %15

15:                                               ; preds = %58, %5
  %16 = load i32, ptr %12, align 4, !tbaa !4
  %17 = load i32, ptr %7, align 4, !tbaa !4
  %18 = icmp slt i32 %16, %17
  br i1 %18, label %20, label %19

19:                                               ; preds = %15
  call void @llvm.lifetime.end.p0(i64 4, ptr %12) #8
  br label %61

20:                                               ; preds = %15
  call void @llvm.lifetime.start.p0(i64 8, ptr %13) #8
  %21 = load ptr, ptr %11, align 8, !tbaa !26
  %22 = getelementptr inbounds nuw %struct.lmcurve_data_struct, ptr %21, i32 0, i32 2
  %23 = load ptr, ptr %22, align 8, !tbaa !44
  %24 = load i32, ptr %12, align 4, !tbaa !4
  %25 = sext i32 %24 to i64
  %26 = getelementptr inbounds double, ptr %23, i64 %25
  %27 = load double, ptr %26, align 8, !tbaa !16
  store double %27, ptr %13, align 8, !tbaa !16
  %28 = load double, ptr %13, align 8, !tbaa !16
  %29 = fcmp oeq double %28, 0.000000e+00
  br i1 %29, label %30, label %31

30:                                               ; preds = %20
  store double 1.000000e+00, ptr %13, align 8, !tbaa !16
  br label %31

31:                                               ; preds = %30, %20
  %32 = load ptr, ptr %11, align 8, !tbaa !26
  %33 = getelementptr inbounds nuw %struct.lmcurve_data_struct, ptr %32, i32 0, i32 1
  %34 = load ptr, ptr %33, align 8, !tbaa !43
  %35 = load i32, ptr %12, align 4, !tbaa !4
  %36 = sext i32 %35 to i64
  %37 = getelementptr inbounds double, ptr %34, i64 %36
  %38 = load double, ptr %37, align 8, !tbaa !16
  %39 = load ptr, ptr %11, align 8, !tbaa !26
  %40 = getelementptr inbounds nuw %struct.lmcurve_data_struct, ptr %39, i32 0, i32 3
  %41 = load ptr, ptr %40, align 8, !tbaa !45
  %42 = load ptr, ptr %11, align 8, !tbaa !26
  %43 = getelementptr inbounds nuw %struct.lmcurve_data_struct, ptr %42, i32 0, i32 0
  %44 = load ptr, ptr %43, align 8, !tbaa !41
  %45 = load i32, ptr %12, align 4, !tbaa !4
  %46 = sext i32 %45 to i64
  %47 = getelementptr inbounds double, ptr %44, i64 %46
  %48 = load double, ptr %47, align 8, !tbaa !16
  %49 = load ptr, ptr %6, align 8, !tbaa !8
  %50 = call noundef double %41(double noundef %48, ptr noundef %49)
  %51 = fsub double %38, %50
  %52 = load double, ptr %13, align 8, !tbaa !16
  %53 = fdiv double %51, %52
  %54 = load ptr, ptr %9, align 8, !tbaa !8
  %55 = load i32, ptr %12, align 4, !tbaa !4
  %56 = sext i32 %55 to i64
  %57 = getelementptr inbounds double, ptr %54, i64 %56
  store double %53, ptr %57, align 8, !tbaa !16
  call void @llvm.lifetime.end.p0(i64 8, ptr %13) #8
  br label %58

58:                                               ; preds = %31
  %59 = load i32, ptr %12, align 4, !tbaa !4
  %60 = add nsw i32 %59, 1
  store i32 %60, ptr %12, align 4, !tbaa !4
  br label %15, !llvm.loop !48

61:                                               ; preds = %19
  %62 = load ptr, ptr %10, align 8, !tbaa !46
  store i32 0, ptr %62, align 4, !tbaa !4
  call void @llvm.lifetime.end.p0(i64 8, ptr %11) #8
  ret void
}