; Function Attrs: mustprogress uwtable
define internal void @_ZL16lmcurve_evaluatePKdiPKvPdPi(ptr noundef %0, i32 noundef %1, ptr noundef readonly captures(none) %2, ptr noundef writeonly captures(none) %3, ptr noundef writeonly captures(none) %4) #0 {
  %6 = icmp sgt i32 %1, 0
  br i1 %6, label %.lr.ph, label %._crit_edge

.lr.ph:                                           ; preds = %5
  %7 = getelementptr inbounds nuw i8, ptr %2, i64 16
  %8 = getelementptr inbounds nuw i8, ptr %2, i64 8
  %9 = getelementptr inbounds nuw i8, ptr %2, i64 24
  %wide.trip.count = zext nneg i32 %1 to i64
  br label %10

._crit_edge:                                      ; preds = %10, %5
  store i32 0, ptr %4, align 4, !tbaa !12
  ret void

10:                                               ; preds = %.lr.ph, %10
  %indvars.iv = phi i64 [ 0, %.lr.ph ], [ %indvars.iv.next, %10 ]
  %11 = load ptr, ptr %7, align 8, !tbaa !25
  %12 = getelementptr inbounds nuw double, ptr %11, i64 %indvars.iv
  %13 = load double, ptr %12, align 8, !tbaa !10
  %14 = fcmp oeq double %13, 0.000000e+00
  %.0 = select i1 %14, double 1.000000e+00, double %13
  %15 = load ptr, ptr %8, align 8, !tbaa !24
  %16 = getelementptr inbounds nuw double, ptr %15, i64 %indvars.iv
  %17 = load double, ptr %16, align 8, !tbaa !10
  %18 = load ptr, ptr %9, align 8, !tbaa !26
  %19 = load ptr, ptr %2, align 8, !tbaa !21
  %20 = getelementptr inbounds nuw double, ptr %19, i64 %indvars.iv
  %21 = load double, ptr %20, align 8, !tbaa !10
  %22 = tail call noundef double %18(double noundef %21, ptr noundef %0)
  %23 = fsub double %17, %22
  %24 = fdiv double %23, %.0
  %25 = getelementptr inbounds nuw double, ptr %3, i64 %indvars.iv
  store double %24, ptr %25, align 8, !tbaa !10
  %indvars.iv.next = add nuw nsw i64 %indvars.iv, 1
  %exitcond.not = icmp eq i64 %indvars.iv.next, %wide.trip.count
  br i1 %exitcond.not, label %._crit_edge, label %10, !llvm.loop !37
}